target datalayout = "e-m:e-p270:32:32-p271:32:32-p272:64:64-i64:64-i128:128-f80:128-n8:16:32:64-S128"
target triple = "x86_64-unknown-linux-gnu"

%"class.zmq::raw_decoder_t" = type { %"class.zmq::i_decoder", %"class.zmq::msg_t", %"class.zmq::shared_message_memory_allocator" }
%"class.zmq::i_decoder" = type { ptr }
%"class.zmq::msg_t" = type { %union.anon }
%union.anon = type { %struct.anon }
%struct.anon = type { ptr, [34 x i8], i8, i8, i32, %"union.zmq::msg_t::group_t" }
%"union.zmq::msg_t::group_t" = type { %struct.anon.1 }
%struct.anon.1 = type { i8, ptr }
%"class.zmq::shared_message_memory_allocator" = type { ptr, i64, i64, ptr, i64 }

; Function Attrs: mustprogress uwtable
define void @_ZN3zmq13raw_decoder_t10get_bufferEPPhPm(ptr noundef nonnull align 8 dereferenceable(112) %this, ptr noundef %data_, ptr noundef %size_) unnamed_addr #0 align 2 {
entry:
  %this.addr = alloca ptr, align 8
  %data_.addr = alloca ptr, align 8
  %size_.addr = alloca ptr, align 8
  store ptr %this, ptr %this.addr, align 8
  store ptr %data_, ptr %data_.addr, align 8
  store ptr %size_, ptr %size_.addr, align 8
  %this1 = load ptr, ptr %this.addr, align 8
  %_allocator = getelementptr inbounds %"class.zmq::raw_decoder_t", ptr %this1, i32 0, i32 2
  %call = call noundef ptr @_ZN3zmq31shared_message_memory_allocator8allocateEv(ptr noundef nonnull align 8 dereferenceable(40) %_allocator)
  %0 = load ptr, ptr %data_.addr, align 8
  store ptr %call, ptr %0, align 8
  %_allocator2 = getelementptr inbounds %"class.zmq::raw_decoder_t", ptr %this1, i32 0, i32 2
  %call3 = call noundef i64 @_ZNK3zmq31shared_message_memory_allocator4sizeEv(ptr noundef nonnull align 8 dereferenceable(40) %_allocator2)
  %1 = load ptr, ptr %size_.addr, align 8
  store i64 %call3, ptr %1, align 8
  ret void
}