; Function Attrs: mustprogress uwtable
define void @_ZN3zmq13raw_decoder_t10get_bufferEPPhPm(ptr noundef nonnull align 8 dereferenceable(112) %this, ptr nocapture noundef writeonly %data_, ptr nocapture noundef writeonly %size_) unnamed_addr #0 align 2 {
entry:
  %_allocator = getelementptr inbounds i8, ptr %this, i64 72
  %call = tail call noundef ptr @_ZN3zmq31shared_message_memory_allocator8allocateEv(ptr noundef nonnull align 8 dereferenceable(40) %_allocator)
  store ptr %call, ptr %data_, align 8
  %call3 = tail call noundef i64 @_ZNK3zmq31shared_message_memory_allocator4sizeEv(ptr noundef nonnull align 8 dereferenceable(40) %_allocator)
  store i64 %call3, ptr %size_, align 8
  ret void
}